target datalayout = "e-m:e-p270:32:32-p271:32:32-p272:64:64-i64:64-i128:128-f80:128-n8:16:32:64-S128"
target triple = "x86_64-pc-linux-gnu"

%struct.strmap = type { %struct.hashmap, ptr, i8 }
%struct.hashmap = type { ptr, ptr, ptr, i32, i32, i32, i32, i8 }

; Function Attrs: nounwind uwtable
define dso_local void @strmap_init_with_options(ptr noundef %0, ptr noundef %1, i32 noundef %2) #0 {
  %4 = alloca ptr, align 8
  %5 = alloca ptr, align 8
  %6 = alloca i32, align 4
  store ptr %0, ptr %4, align 8, !tbaa !17
  store ptr %1, ptr %5, align 8, !tbaa !19
  store i32 %2, ptr %6, align 4, !tbaa !21
  %7 = load ptr, ptr %4, align 8, !tbaa !17
  %8 = getelementptr inbounds nuw %struct.strmap, ptr %7, i32 0, i32 0
  call void @hashmap_init(ptr noundef %8, ptr noundef @cmp_strmap_entry, ptr noundef null, i64 noundef 0)
  %9 = load ptr, ptr %5, align 8, !tbaa !19
  %10 = load ptr, ptr %4, align 8, !tbaa !17
  %11 = getelementptr inbounds nuw %struct.strmap, ptr %10, i32 0, i32 1
  store ptr %9, ptr %11, align 8, !tbaa !22
  %12 = load i32, ptr %6, align 4, !tbaa !21
  %13 = load ptr, ptr %4, align 8, !tbaa !17
  %14 = getelementptr inbounds nuw %struct.strmap, ptr %13, i32 0, i32 2
  %15 = trunc i32 %12 to i8
  %16 = load i8, ptr %14, align 8
  %17 = and i8 %15, 1
  %18 = and i8 %16, -2
  %19 = or i8 %18, %17
  store i8 %19, ptr %14, align 8
  ret void
}