; Function Attrs: nounwind uwtable
define dso_local void @strmap_init_with_options(ptr noundef %0, ptr noundef %1, i32 noundef %2) local_unnamed_addr #5 {
  tail call void @hashmap_init(ptr noundef %0, ptr noundef nonnull @cmp_strmap_entry, ptr noundef null, i64 noundef 0) #10
  %4 = getelementptr inbounds nuw i8, ptr %0, i64 48
  store ptr %1, ptr %4, align 8, !tbaa !13
  %5 = getelementptr inbounds nuw i8, ptr %0, i64 56
  %6 = trunc i32 %2 to i8
  %7 = load i8, ptr %5, align 8
  %8 = and i8 %6, 1
  %9 = and i8 %7, -2
  %10 = or disjoint i8 %9, %8
  store i8 %10, ptr %5, align 8
  ret void
}